target datalayout = "e-m:e-p270:32:32-p271:32:32-p272:64:64-i64:64-i128:128-f80:128-n8:16:32:64-S128"
target triple = "x86_64-pc-linux-gnu"

%struct.DdManager = type { %struct.DdNode, ptr, ptr, ptr, ptr, ptr, ptr, ptr, i32, i32, double, double, double, i32, i32, i32, i32, i32, i32, ptr, ptr, %struct.DdSubtable, i32, i32, i32, i32, i32, i32, i32, double, i32, i32, i32, ptr, i64, double, i32, ptr, ptr, ptr, ptr, ptr, ptr, ptr, i32, ptr, ptr, ptr, ptr, ptr, ptr, i32, i32, i32, double, i32, i32, i32, i32, double, double, i32, i32, i32, i32, i32, i32, i32, i32, i32, ptr, ptr, i32, i32, i32, i32, i32, i32, ptr, ptr, ptr, ptr, ptr, ptr, ptr, ptr, i32, i64, i64, i64, i32, i64, i64, double, double, double, double, double, double, i32, ptr, ptr, i64 }
%struct.DdNode = type { i32, i32, ptr, %union.anon, i64 }
%union.anon = type { %struct.DdChildren }
%struct.DdChildren = type { ptr, ptr }
%struct.DdSubtable = type { ptr, i32, i32, i32, i32, i32, i32, i32, i32, i32, i32, i32 }

; Function Attrs: nounwind uwtable
define ptr @Cudd_CubeArrayToBdd(ptr noundef %0, ptr noundef %1) #0 {
  %3 = alloca ptr, align 8
  %4 = alloca ptr, align 8
  %5 = alloca ptr, align 8
  %6 = alloca ptr, align 8
  %7 = alloca ptr, align 8
  %8 = alloca ptr, align 8
  %9 = alloca i32, align 4
  %10 = alloca i32, align 4
  store ptr %0, ptr %4, align 8
  store ptr %1, ptr %5, align 8
  %11 = load ptr, ptr %4, align 8
  %12 = call i32 @Cudd_ReadSize(ptr noundef %11)
  store i32 %12, ptr %10, align 4
  %13 = load ptr, ptr %4, align 8
  %14 = getelementptr inbounds %struct.DdManager, ptr %13, i32 0, i32 1
  %15 = load ptr, ptr %14, align 8
  store ptr %15, ptr %6, align 8
  %16 = load ptr, ptr %6, align 8
  %17 = ptrtoint ptr %16 to i64
  %18 = and i64 %17, -2
  %19 = inttoptr i64 %18 to ptr
  %20 = getelementptr inbounds %struct.DdNode, ptr %19, i32 0, i32 1
  %21 = load i32, ptr %20, align 4
  %22 = add i32 %21, 1
  store i32 %22, ptr %20, align 4
  %23 = load i32, ptr %10, align 4
  %24 = sub nsw i32 %23, 1
  store i32 %24, ptr %9, align 4
  br label %25

25:                                               ; preds = %72, %2
  %26 = load i32, ptr %9, align 4
  %27 = icmp sge i32 %26, 0
  br i1 %27, label %28, label %75

28:                                               ; preds = %25
  %29 = load ptr, ptr %5, align 8
  %30 = load i32, ptr %9, align 4
  %31 = sext i32 %30 to i64
  %32 = getelementptr inbounds i32, ptr %29, i64 %31
  %33 = load i32, ptr %32, align 4
  %34 = and i32 %33, -2
  %35 = icmp eq i32 %34, 0
  br i1 %35, label %36, label %71

36:                                               ; preds = %28
  %37 = load ptr, ptr %4, align 8
  %38 = load i32, ptr %9, align 4
  %39 = call ptr @Cudd_bddIthVar(ptr noundef %37, i32 noundef %38)
  store ptr %39, ptr %7, align 8
  %40 = load ptr, ptr %4, align 8
  %41 = load ptr, ptr %6, align 8
  %42 = load ptr, ptr %7, align 8
  %43 = ptrtoint ptr %42 to i64
  %44 = load ptr, ptr %5, align 8
  %45 = load i32, ptr %9, align 4
  %46 = sext i32 %45 to i64
  %47 = getelementptr inbounds i32, ptr %44, i64 %46
  %48 = load i32, ptr %47, align 4
  %49 = icmp eq i32 %48, 0
  %50 = zext i1 %49 to i32
  %51 = sext i32 %50 to i64
  %52 = xor i64 %43, %51
  %53 = inttoptr i64 %52 to ptr
  %54 = call ptr @Cudd_bddAnd(ptr noundef %40, ptr noundef %41, ptr noundef %53)
  store ptr %54, ptr %8, align 8
  %55 = load ptr, ptr %8, align 8
  %56 = icmp eq ptr %55, null
  br i1 %56, label %57, label %60

57:                                               ; preds = %36
  %58 = load ptr, ptr %4, align 8
  %59 = load ptr, ptr %6, align 8
  call void @Cudd_RecursiveDeref(ptr noundef %58, ptr noundef %59)
  store ptr null, ptr %3, align 8
  br label %84

60:                                               ; preds = %36
  %61 = load ptr, ptr %8, align 8
  %62 = ptrtoint ptr %61 to i64
  %63 = and i64 %62, -2
  %64 = inttoptr i64 %63 to ptr
  %65 = getelementptr inbounds %struct.DdNode, ptr %64, i32 0, i32 1
  %66 = load i32, ptr %65, align 4
  %67 = add i32 %66, 1
  store i32 %67, ptr %65, align 4
  %68 = load ptr, ptr %4, align 8
  %69 = load ptr, ptr %6, align 8
  call void @Cudd_RecursiveDeref(ptr noundef %68, ptr noundef %69)
  %70 = load ptr, ptr %8, align 8
  store ptr %70, ptr %6, align 8
  br label %71

71:                                               ; preds = %60, %28
  br label %72

72:                                               ; preds = %71
  %73 = load i32, ptr %9, align 4
  %74 = add nsw i32 %73, -1
  store i32 %74, ptr %9, align 4
  br label %25, !llvm.loop !71

75:                                               ; preds = %25
  %76 = load ptr, ptr %6, align 8
  %77 = ptrtoint ptr %76 to i64
  %78 = and i64 %77, -2
  %79 = inttoptr i64 %78 to ptr
  %80 = getelementptr inbounds %struct.DdNode, ptr %79, i32 0, i32 1
  %81 = load i32, ptr %80, align 4
  %82 = add i32 %81, -1
  store i32 %82, ptr %80, align 4
  %83 = load ptr, ptr %6, align 8
  store ptr %83, ptr %3, align 8
  br label %84

84:                                               ; preds = %75, %57
  %85 = load ptr, ptr %3, align 8
  ret ptr %85
}