; Function Attrs: nounwind uwtable
define ptr @Cudd_CubeArrayToBdd(ptr noundef %0, ptr noundef readonly captures(none) %1) local_unnamed_addr #0 {
  %3 = tail call i32 @Cudd_ReadSize(ptr noundef %0) #23
  %4 = getelementptr inbounds nuw i8, ptr %0, i64 40
  %5 = load ptr, ptr %4, align 8
  %6 = ptrtoint ptr %5 to i64
  %7 = and i64 %6, -2
  %8 = inttoptr i64 %7 to ptr
  %9 = getelementptr inbounds nuw i8, ptr %8, i64 4
  %10 = load i32, ptr %9, align 4
  %11 = add i32 %10, 1
  store i32 %11, ptr %9, align 4
  %12 = icmp sgt i32 %3, 0
  br i1 %12, label %.lr.ph.preheader, label %._crit_edge

.lr.ph.preheader:                                 ; preds = %2
  %13 = zext nneg i32 %3 to i64
  br label %.lr.ph

.lr.ph:                                           ; preds = %.lr.ph.preheader, %36
  %indvars.iv = phi i64 [ %13, %.lr.ph.preheader ], [ %indvars.iv.next, %36 ]
  %.02529 = phi ptr [ %5, %.lr.ph.preheader ], [ %.1, %36 ]
  %indvars.iv.next = add nsw i64 %indvars.iv, -1
  %14 = getelementptr inbounds nuw i32, ptr %1, i64 %indvars.iv.next
  %15 = load i32, ptr %14, align 4
  %16 = icmp ult i32 %15, 2
  br i1 %16, label %17, label %36

17:                                               ; preds = %.lr.ph
  %18 = trunc nuw nsw i64 %indvars.iv.next to i32
  %19 = tail call ptr @Cudd_bddIthVar(ptr noundef %0, i32 noundef %18) #23
  %20 = ptrtoint ptr %19 to i64
  %21 = load i32, ptr %14, align 4
  %22 = icmp eq i32 %21, 0
  %23 = zext i1 %22 to i64
  %24 = xor i64 %23, %20
  %25 = inttoptr i64 %24 to ptr
  %26 = tail call ptr @Cudd_bddAnd(ptr noundef %0, ptr noundef %.02529, ptr noundef %25) #23
  %27 = icmp eq ptr %26, null
  br i1 %27, label %28, label %29

28:                                               ; preds = %17
  tail call void @Cudd_RecursiveDeref(ptr noundef %0, ptr noundef %.02529) #23
  br label %41

29:                                               ; preds = %17
  %30 = ptrtoint ptr %26 to i64
  %31 = and i64 %30, -2
  %32 = inttoptr i64 %31 to ptr
  %33 = getelementptr inbounds nuw i8, ptr %32, i64 4
  %34 = load i32, ptr %33, align 4
  %35 = add i32 %34, 1
  store i32 %35, ptr %33, align 4
  tail call void @Cudd_RecursiveDeref(ptr noundef %0, ptr noundef %.02529) #23
  br label %36

36:                                               ; preds = %.lr.ph, %29
  %.1 = phi ptr [ %26, %29 ], [ %.02529, %.lr.ph ]
  %37 = icmp samesign ugt i64 %indvars.iv, 1
  br i1 %37, label %.lr.ph, label %._crit_edge.loopexit, !llvm.loop !62

._crit_edge.loopexit:                             ; preds = %36
  %.pre = ptrtoint ptr %.1 to i64
  %.pre33 = and i64 %.pre, -2
  %.pre35 = inttoptr i64 %.pre33 to ptr
  br label %._crit_edge

._crit_edge:                                      ; preds = %._crit_edge.loopexit, %2
  %.pre-phi36 = phi ptr [ %.pre35, %._crit_edge.loopexit ], [ %8, %2 ]
  %.025.lcssa = phi ptr [ %.1, %._crit_edge.loopexit ], [ %5, %2 ]
  %38 = getelementptr inbounds nuw i8, ptr %.pre-phi36, i64 4
  %39 = load i32, ptr %38, align 4
  %40 = add i32 %39, -1
  store i32 %40, ptr %38, align 4
  br label %41

41:                                               ; preds = %._crit_edge, %28
  %.0 = phi ptr [ null, %28 ], [ %.025.lcssa, %._crit_edge ]
  ret ptr %.0
}